target datalayout = "e-m:e-p270:32:32-p271:32:32-p272:64:64-i64:64-i128:128-f80:128-n8:16:32:64-S128"
target triple = "x86_64-pc-linux-gnu"

@media_type_dissector_table = internal global ptr null, align 8
@oscore_handle = internal global ptr null, align 8
@.str.177 = private unnamed_addr constant [5 x i8] c"coap\00", align 1
@proto_coap = internal global i32 0, align 4
@coap_other_handle = internal global ptr null, align 8
@coap_tcp_tls_handle = internal global ptr null, align 8
@coap_for_tmf_handle = internal global ptr null, align 8
@.str.183 = private unnamed_addr constant [11 x i8] c"media_type\00", align 1
@.str.184 = private unnamed_addr constant [9 x i8] c"udp.port\00", align 1
@.str.185 = private unnamed_addr constant [9 x i8] c"tcp.port\00", align 1
@.str.186 = private unnamed_addr constant [9 x i8] c"tls.alpn\00", align 1
@.str.187 = private unnamed_addr constant [12 x i8] c"ws.protocol\00", align 1
@.str.188 = private unnamed_addr constant [7 x i8] c"oscore\00", align 1

; Function Attrs: null_pointer_is_valid sspstrong uwtable
define hidden void @proto_reg_handoff_coap() #1 {
  %1 = alloca ptr, align 8
  call void @llvm.lifetime.start.p0(i64 8, ptr %1) #11
  %2 = call ptr @find_dissector_table(ptr noundef @.str.183)
  store ptr %2, ptr @media_type_dissector_table, align 8
  %3 = load ptr, ptr @coap_other_handle, align 8
  call void @dissector_add_uint_with_preference(ptr noundef @.str.184, i32 noundef 5683, ptr noundef %3)
  %4 = load ptr, ptr @coap_other_handle, align 8
  call void @dtls_dissector_add(i32 noundef 5684, ptr noundef %4)
  %5 = load ptr, ptr @coap_tcp_tls_handle, align 8
  call void @dissector_add_uint_with_preference(ptr noundef @.str.185, i32 noundef 5683, ptr noundef %5)
  %6 = load ptr, ptr @coap_tcp_tls_handle, align 8
  call void @ssl_dissector_add(i32 noundef 5684, ptr noundef %6)
  %7 = load ptr, ptr @coap_tcp_tls_handle, align 8
  call void @dissector_add_string(ptr noundef @.str.186, ptr noundef @.str.177, ptr noundef %7)
  %8 = load i32, ptr @proto_coap, align 4
  %9 = call ptr @create_dissector_handle(ptr noundef @dissect_coap_websockets, i32 noundef %8)
  store ptr %9, ptr %1, align 8
  %10 = load ptr, ptr %1, align 8
  call void @dissector_add_string(ptr noundef @.str.187, ptr noundef @.str.177, ptr noundef %10)
  %11 = load ptr, ptr @coap_for_tmf_handle, align 8
  call void @dissector_add_for_decode_as(ptr noundef @.str.184, ptr noundef %11)
  %12 = call ptr @find_dissector(ptr noundef @.str.188)
  store ptr %12, ptr @oscore_handle, align 8
  call void @llvm.lifetime.end.p0(i64 8, ptr %1) #11
  ret void
}