; Function Attrs: null_pointer_is_valid sspstrong uwtable
define hidden void @proto_reg_handoff_coap() local_unnamed_addr #1 {
  %1 = tail call ptr @find_dissector_table(ptr noundef nonnull @.str.183)
  store ptr %1, ptr @media_type_dissector_table, align 8
  %2 = load ptr, ptr @coap_other_handle, align 8
  tail call void @dissector_add_uint_with_preference(ptr noundef nonnull @.str.184, i32 noundef 5683, ptr noundef %2)
  %3 = load ptr, ptr @coap_other_handle, align 8
  tail call void @dtls_dissector_add(i32 noundef 5684, ptr noundef %3)
  %4 = load ptr, ptr @coap_tcp_tls_handle, align 8
  tail call void @dissector_add_uint_with_preference(ptr noundef nonnull @.str.185, i32 noundef 5683, ptr noundef %4)
  %5 = load ptr, ptr @coap_tcp_tls_handle, align 8
  tail call void @ssl_dissector_add(i32 noundef 5684, ptr noundef %5)
  %6 = load ptr, ptr @coap_tcp_tls_handle, align 8
  tail call void @dissector_add_string(ptr noundef nonnull @.str.186, ptr noundef nonnull @.str.177, ptr noundef %6)
  %7 = load i32, ptr @proto_coap, align 4
  %8 = tail call ptr @create_dissector_handle(ptr noundef nonnull @dissect_coap_websockets, i32 noundef %7)
  tail call void @dissector_add_string(ptr noundef nonnull @.str.187, ptr noundef nonnull @.str.177, ptr noundef %8)
  %9 = load ptr, ptr @coap_for_tmf_handle, align 8
  tail call void @dissector_add_for_decode_as(ptr noundef nonnull @.str.184, ptr noundef %9)
  %10 = tail call ptr @find_dissector(ptr noundef nonnull @.str.188)
  store ptr %10, ptr @oscore_handle, align 8
  ret void
}